target datalayout = "e-m:e-p270:32:32-p271:32:32-p272:64:64-i64:64-i128:128-f80:128-n8:16:32:64-S128"
target triple = "x86_64-pc-linux-gnu"

%struct.quic_rcidm_st = type { %struct.quic_conn_id_st, %struct.quic_conn_id_st, %struct.quic_conn_id_st, i64, i64, i64, ptr, ptr, %struct.ossl_list_st_retiring, i64, i8 }
%struct.quic_conn_id_st = type { i8, [20 x i8] }
%struct.ossl_list_st_retiring = type { ptr, ptr, i64 }
%struct.rcid_st = type { %struct.anon, %struct.quic_conn_id_st, i64, i64, i8 }
%struct.anon = type { ptr, ptr }

@.str = private unnamed_addr constant [33 x i8] c"../openssl/ssl/quic/quic_rcidm.c\00", align 1

; Function Attrs: inlinehint nounwind uwtable
define internal void @ossl_pqueue_RCID_free(ptr noundef %0) #3 {
  %2 = alloca ptr, align 8
  store ptr %0, ptr %2, align 8, !tbaa !29
  %3 = load ptr, ptr %2, align 8, !tbaa !29
  call void @ossl_pqueue_free(ptr noundef %3)
  ret void
}

; Function Attrs: inlinehint nounwind uwtable
define internal ptr @ossl_list_retiring_next(ptr noundef %0) #3 {
  %2 = alloca ptr, align 8
  store ptr %0, ptr %2, align 8, !tbaa !21
  %3 = load ptr, ptr %2, align 8, !tbaa !21
  %4 = getelementptr inbounds nuw %struct.rcid_st, ptr %3, i32 0, i32 0
  %5 = getelementptr inbounds nuw %struct.anon, ptr %4, i32 0, i32 0
  %6 = load ptr, ptr %5, align 8, !tbaa !33
  ret ptr %6
}

; Function Attrs: inlinehint nounwind uwtable
define internal ptr @ossl_list_retiring_head(ptr noundef %0) #3 {
  %2 = alloca ptr, align 8
  store ptr %0, ptr %2, align 8, !tbaa !30
  %3 = load ptr, ptr %2, align 8, !tbaa !30
  %4 = getelementptr inbounds nuw %struct.ossl_list_st_retiring, ptr %3, i32 0, i32 0
  %5 = load ptr, ptr %4, align 8, !tbaa !32
  ret ptr %5
}

; Function Attrs: inlinehint nounwind uwtable
define internal ptr @ossl_pqueue_RCID_pop(ptr noundef %0) #3 {
  %2 = alloca ptr, align 8
  store ptr %0, ptr %2, align 8, !tbaa !29
  %3 = load ptr, ptr %2, align 8, !tbaa !29
  %4 = call ptr @ossl_pqueue_pop(ptr noundef %3)
  ret ptr %4
}

; Function Attrs: nounwind uwtable
define void @ossl_quic_rcidm_free(ptr noundef %0) #0 {
  %2 = alloca ptr, align 8
  %3 = alloca ptr, align 8
  %4 = alloca ptr, align 8
  %5 = alloca i32, align 4
  store ptr %0, ptr %2, align 8, !tbaa !8
  call void @llvm.lifetime.start.p0(i64 8, ptr %3) #7
  call void @llvm.lifetime.start.p0(i64 8, ptr %4) #7
  %6 = load ptr, ptr %2, align 8, !tbaa !8
  %7 = icmp eq ptr %6, null
  br i1 %7, label %8, label %9

8:                                                ; preds = %1
  store i32 1, ptr %5, align 4
  br label %42

9:                                                ; preds = %1
  %10 = load ptr, ptr %2, align 8, !tbaa !8
  %11 = getelementptr inbounds nuw %struct.quic_rcidm_st, ptr %10, i32 0, i32 7
  %12 = load ptr, ptr %11, align 8, !tbaa !25
  call void @CRYPTO_free(ptr noundef %12, ptr noundef @.str, i32 noundef 309)
  br label %13

13:                                               ; preds = %19, %9
  %14 = load ptr, ptr %2, align 8, !tbaa !8
  %15 = getelementptr inbounds nuw %struct.quic_rcidm_st, ptr %14, i32 0, i32 6
  %16 = load ptr, ptr %15, align 8, !tbaa !10
  %17 = call ptr @ossl_pqueue_RCID_pop(ptr noundef %16)
  store ptr %17, ptr %3, align 8, !tbaa !21
  %18 = icmp ne ptr %17, null
  br i1 %18, label %19, label %21

19:                                               ; preds = %13
  %20 = load ptr, ptr %3, align 8, !tbaa !21
  call void @CRYPTO_free(ptr noundef %20, ptr noundef @.str, i32 noundef 311)
  br label %13, !llvm.loop !26

21:                                               ; preds = %13
  %22 = load ptr, ptr %2, align 8, !tbaa !8
  %23 = getelementptr inbounds nuw %struct.quic_rcidm_st, ptr %22, i32 0, i32 8
  %24 = call ptr @ossl_list_retiring_head(ptr noundef %23)
  store ptr %24, ptr %3, align 8, !tbaa !21
  br label %25

25:                                               ; preds = %35, %21
  %26 = load ptr, ptr %3, align 8, !tbaa !21
  %27 = icmp ne ptr %26, null
  br i1 %27, label %28, label %31

28:                                               ; preds = %25
  %29 = load ptr, ptr %3, align 8, !tbaa !21
  %30 = call ptr @ossl_list_retiring_next(ptr noundef %29)
  store ptr %30, ptr %4, align 8, !tbaa !21
  br label %31

31:                                               ; preds = %28, %25
  %32 = phi i1 [ false, %25 ], [ true, %28 ]
  br i1 %32, label %33, label %37

33:                                               ; preds = %31
  %34 = load ptr, ptr %3, align 8, !tbaa !21
  call void @CRYPTO_free(ptr noundef %34, ptr noundef @.str, i32 noundef 314)
  br label %35

35:                                               ; preds = %33
  %36 = load ptr, ptr %4, align 8, !tbaa !21
  store ptr %36, ptr %3, align 8, !tbaa !21
  br label %25, !llvm.loop !28

37:                                               ; preds = %31
  %38 = load ptr, ptr %2, align 8, !tbaa !8
  %39 = getelementptr inbounds nuw %struct.quic_rcidm_st, ptr %38, i32 0, i32 6
  %40 = load ptr, ptr %39, align 8, !tbaa !10
  call void @ossl_pqueue_RCID_free(ptr noundef %40)
  %41 = load ptr, ptr %2, align 8, !tbaa !8
  call void @CRYPTO_free(ptr noundef %41, ptr noundef @.str, i32 noundef 317)
  store i32 0, ptr %5, align 4
  br label %42

42:                                               ; preds = %37, %8
  call void @llvm.lifetime.end.p0(i64 8, ptr %4) #7
  call void @llvm.lifetime.end.p0(i64 8, ptr %3) #7
  %43 = load i32, ptr %5, align 4
  switch i32 %43, label %45 [
    i32 0, label %44
    i32 1, label %44
  ]

44:                                               ; preds = %42, %42
  ret void

45:                                               ; preds = %42
  unreachable
}