; Function Attrs: nounwind uwtable
define void @ossl_quic_rcidm_free(ptr noundef %0) local_unnamed_addr #0 {
  %2 = icmp eq ptr %0, null
  br i1 %2, label %14, label %3

3:                                                ; preds = %1
  %4 = getelementptr inbounds nuw i8, ptr %0, i64 96
  %5 = load ptr, ptr %4, align 8, !tbaa !19
  tail call void @CRYPTO_free(ptr noundef %5, ptr noundef nonnull @.str, i32 noundef 309) #9
  %6 = getelementptr inbounds nuw i8, ptr %0, i64 88
  %7 = load ptr, ptr %6, align 8, !tbaa !3
  %8 = tail call ptr @ossl_pqueue_pop(ptr noundef %7) #9
  %.not14 = icmp eq ptr %8, null
  br i1 %.not14, label %._crit_edge, label %.lr.ph

.lr.ph:                                           ; preds = %3, %.lr.ph
  %9 = phi ptr [ %11, %.lr.ph ], [ %8, %3 ]
  tail call void @CRYPTO_free(ptr noundef nonnull %9, ptr noundef nonnull @.str, i32 noundef 311) #9
  %10 = load ptr, ptr %6, align 8, !tbaa !3
  %11 = tail call ptr @ossl_pqueue_pop(ptr noundef %10) #9
  %.not = icmp eq ptr %11, null
  br i1 %.not, label %._crit_edge, label %.lr.ph, !llvm.loop !21

._crit_edge:                                      ; preds = %.lr.ph, %3
  %12 = getelementptr inbounds nuw i8, ptr %0, i64 104
  %.val = load ptr, ptr %12, align 8, !tbaa !23
  %.not1315 = icmp eq ptr %.val, null
  br i1 %.not1315, label %.critedge, label %.lr.ph18

.lr.ph18:                                         ; preds = %._crit_edge, %.lr.ph18
  %.016 = phi ptr [ %.0.val, %.lr.ph18 ], [ %.val, %._crit_edge ]
  %.0.val = load ptr, ptr %.016, align 8, !tbaa !24
  tail call void @CRYPTO_free(ptr noundef nonnull %.016, ptr noundef nonnull @.str, i32 noundef 314) #9
  %.not13 = icmp eq ptr %.0.val, null
  br i1 %.not13, label %.critedge, label %.lr.ph18, !llvm.loop !25

.critedge:                                        ; preds = %.lr.ph18, %._crit_edge
  %13 = load ptr, ptr %6, align 8, !tbaa !3
  tail call void @ossl_pqueue_free(ptr noundef %13) #9
  tail call void @CRYPTO_free(ptr noundef nonnull %0, ptr noundef nonnull @.str, i32 noundef 317) #9
  br label %14

14:                                               ; preds = %1, %.critedge
  ret void
}